; Function Attrs: mustprogress uwtable
define dso_local i32 @_ZN4absl12ConcatCrc32cENS_8crc32c_tES0_m(i32 %0, i32 %1, i64 noundef %2) local_unnamed_addr #0 personality ptr @__gxx_personality_v0 {
  %4 = alloca i32, align 4
  call void @llvm.lifetime.start.p0(i64 4, ptr nonnull %4) #4
  store i32 %0, ptr %4, align 4, !tbaa !4
  %5 = load atomic i8, ptr @_ZGVZN4absl12_GLOBAL__N_19CrcEngineEvE6engine acquire, align 8
  %6 = icmp eq i8 %5, 0
  br i1 %6, label %7, label %_ZN4absl12_GLOBAL__N_19CrcEngineEv.exit, !prof !8

7:                                                ; preds = %3
  %8 = tail call i32 @__cxa_guard_acquire(ptr nonnull @_ZGVZN4absl12_GLOBAL__N_19CrcEngineEvE6engine) #4
  %.not.i = icmp eq i32 %8, 0
  br i1 %.not.i, label %_ZN4absl12_GLOBAL__N_19CrcEngineEv.exit, label %9

9:                                                ; preds = %7
  %10 = invoke noundef ptr @_ZN4absl12crc_internal3CRC6Crc32cEv()
          to label %11 unwind label %12

11:                                               ; preds = %9
  store ptr %10, ptr @_ZZN4absl12_GLOBAL__N_19CrcEngineEvE6engine, align 8, !tbaa !9
  tail call void @__cxa_guard_release(ptr nonnull @_ZGVZN4absl12_GLOBAL__N_19CrcEngineEvE6engine) #4
  br label %_ZN4absl12_GLOBAL__N_19CrcEngineEv.exit

12:                                               ; preds = %9
  %13 = landingpad { ptr, i32 }
          cleanup
  tail call void @__cxa_guard_abort(ptr nonnull @_ZGVZN4absl12_GLOBAL__N_19CrcEngineEvE6engine) #4
  resume { ptr, i32 } %13

_ZN4absl12_GLOBAL__N_19CrcEngineEv.exit:          ; preds = %3, %7, %11
  %14 = load ptr, ptr @_ZZN4absl12_GLOBAL__N_19CrcEngineEvE6engine, align 8, !tbaa !9
  %15 = load ptr, ptr %14, align 8, !tbaa !12
  %16 = getelementptr inbounds nuw i8, ptr %15, i64 24
  %17 = load ptr, ptr %16, align 8
  call void %17(ptr noundef nonnull align 8 dereferenceable(8) %14, ptr noundef nonnull %4, i64 noundef %2)
  %18 = load i32, ptr %4, align 4, !tbaa !4
  %19 = xor i32 %18, %1
  call void @llvm.lifetime.end.p0(i64 4, ptr nonnull %4) #4
  ret i32 %19
}